; Function Attrs: nofree norecurse nosync nounwind memory(argmem: read) uwtable
define internal i32 @vsse_intra16_c(ptr readnone captures(none) %0, ptr noundef readonly captures(none) %1, ptr readnone captures(none) %2, i64 noundef %3, i32 noundef %4) #5 {
  %6 = icmp sgt i32 %4, 1
  br i1 %6, label %.preheader, label %._crit_edge

.preheader:                                       ; preds = %5, %46
  %.055 = phi i32 [ %47, %46 ], [ 1, %5 ]
  %.04954 = phi i32 [ %44, %46 ], [ 0, %5 ]
  %.05053 = phi ptr [ %7, %46 ], [ %1, %5 ]
  %7 = getelementptr i8, ptr %.05053, i64 %3
  br label %8

8:                                                ; preds = %.preheader, %8
  %indvars.iv = phi i64 [ 0, %.preheader ], [ %indvars.iv.next, %8 ]
  %.151 = phi i32 [ %.04954, %.preheader ], [ %44, %8 ]
  %9 = getelementptr inbounds nuw i8, ptr %.05053, i64 %indvars.iv
  %10 = load i8, ptr %9, align 1, !tbaa !20
  %11 = zext i8 %10 to i32
  %12 = getelementptr i8, ptr %7, i64 %indvars.iv
  %13 = load i8, ptr %12, align 1, !tbaa !20
  %14 = zext i8 %13 to i32
  %15 = sub nsw i32 %11, %14
  %16 = mul nsw i32 %15, %15
  %17 = getelementptr inbounds nuw i8, ptr %9, i64 1
  %18 = load i8, ptr %17, align 1, !tbaa !20
  %19 = zext i8 %18 to i32
  %20 = getelementptr i8, ptr %12, i64 1
  %21 = load i8, ptr %20, align 1, !tbaa !20
  %22 = zext i8 %21 to i32
  %23 = sub nsw i32 %19, %22
  %24 = mul nsw i32 %23, %23
  %25 = getelementptr inbounds nuw i8, ptr %9, i64 2
  %26 = load i8, ptr %25, align 1, !tbaa !20
  %27 = zext i8 %26 to i32
  %28 = getelementptr i8, ptr %12, i64 2
  %29 = load i8, ptr %28, align 1, !tbaa !20
  %30 = zext i8 %29 to i32
  %31 = sub nsw i32 %27, %30
  %32 = mul nsw i32 %31, %31
  %33 = getelementptr inbounds nuw i8, ptr %9, i64 3
  %34 = load i8, ptr %33, align 1, !tbaa !20
  %35 = zext i8 %34 to i32
  %36 = getelementptr i8, ptr %12, i64 3
  %37 = load i8, ptr %36, align 1, !tbaa !20
  %38 = zext i8 %37 to i32
  %39 = sub nsw i32 %35, %38
  %40 = mul nsw i32 %39, %39
  %41 = add i32 %16, %.151
  %42 = add i32 %41, %24
  %43 = add i32 %42, %32
  %44 = add i32 %43, %40
  %indvars.iv.next = add nuw nsw i64 %indvars.iv, 4
  %45 = icmp samesign ult i64 %indvars.iv, 12
  br i1 %45, label %8, label %46, !llvm.loop !102

46:                                               ; preds = %8
  %47 = add nuw nsw i32 %.055, 1
  %exitcond.not = icmp eq i32 %47, %4
  br i1 %exitcond.not, label %._crit_edge, label %.preheader, !llvm.loop !103

._crit_edge:                                      ; preds = %46, %5
  %.049.lcssa = phi i32 [ 0, %5 ], [ %44, %46 ]
  ret i32 %.049.lcssa
}